Certificate:
    Data:
        Version: 3 (0x2)
        Serial Number: 18017252157906293753 (0xfa0a2360cca513f9)
    Signature Algorithm: sha256WithRSAEncryption
        Issuer: C=CZ, ST=Czech Republic, L=Brno, O=Default Company Ltd, CN=Martin Strharsky
        Validity
            Not Before: Feb 10 14:18:32 2016 GMT
            Not After : Mar 11 14:18:32 2016 GMT
        Subject: C=CZ, ST=Czech Republic, L=Brno, O=Default Company Ltd, CN=Martin Strharsky
        Subject Public Key Info:
            Public Key Algorithm: rsaEncryption
                Public-Key: (2048 bit)
                Modulus:
                    00:d4:30:be:43:9a:5a:8c:10:5d:48:e7:3a:2d:98:
                    f5:39:72:2d:4f:da:66:73:51:12:93:30:95:03:b9:
                    d8:7e:96:0d:79:cb:99:23:4d:97:4f:da:2d:2a:b4:
                    08:8d:03:40:67:0b:69:bf:f3:e1:5b:c4:cc:cc:87:
                    65:65:1b:53:57:4a:0c:6b:82:53:ba:c8:44:e8:bd:
                    84:7c:54:4c:37:0a:86:d3:0e:30:95:46:62:02:ed:
                    7e:ef:31:2f:22:c9:5b:e9:76:66:93:d5:a1:1b:13:
                    a6:7e:a7:52:fe:3d:ac:eb:6b:01:7a:17:d9:e4:c9:
                    c7:fe:03:02:94:90:db:f6:04:17:24:55:f6:75:93:
                    9e:d6:5b:9f:f9:91:e0:77:cb:a3:03:23:f5:4d:d3:
                    69:12:c2:cd:a2:a5:cc:48:ec:95:48:eb:28:81:20:
                    4c:52:c9:97:91:51:d0:4e:eb:f3:7b:d3:9b:90:96:
                    a8:17:46:4d:1a:f8:5a:6b:0f:4f:1b:56:8c:f9:15:
                    1b:9a:76:1d:8d:5c:c3:72:c2:c6:d6:8a:b3:80:4e:
                    46:9e:fa:1d:19:cb:64:f4:6d:2a:fe:86:19:6a:d1:
                    c4:31:b9:68:d0:26:0c:ab:c8:ad:4a:38:43:9f:7f:
                    7c:02:fa:d3:72:e6:e3:3a:2a:cb:1a:8b:70:ee:bc:
                    9d:e7
                Exponent: 65537 (0x10001)
        X509v3 extensions:
            X509v3 Subject Key Identifier: 
                D4:92:D3:1F:60:DE:7F:9E:AF:20:04:B7:83:13:0F:78:A8:7E:2B:1A
            X509v3 Authority Key Identifier: 
                keyid:D4:92:D3:1F:60:DE:7F:9E:AF:20:04:B7:83:13:0F:78:A8:7E:2B:1A

            X509v3 Basic Constraints: 
                CA:TRUE
    Signature Algorithm: sha256WithRSAEncryption
         aa:1a:79:c0:a4:75:cb:41:bd:79:56:25:aa:0c:dc:09:52:e8:
         54:cd:cc:f8:66:ef:c4:6a:11:fd:37:b9:f7:bf:4c:d5:a7:e2:
         5f:61:ab:b3:ea:13:c0:28:95:20:71:bf:55:fb:c3:5c:9b:57:
         79:43:6f:32:4e:3e:26:77:a2:fc:15:c2:d0:6b:bc:2e:c6:ff:
         aa:32:c1:43:18:09:83:15:cc:73:00:54:b9:02:c5:8c:54:f2:
         c3:f1:83:14:b2:c5:20:19:8b:77:9f:0c:9b:52:22:fc:4f:a2:
         23:0e:c0:bb:33:13:80:a9:7f:44:8e:60:2c:a8:d3:d5:d5:53:
         e1:aa:f2:fe:21:2b:91:bd:fe:e8:41:d2:d6:e7:98:0d:ec:96:
         00:9d:01:7e:23:86:0f:89:a0:a2:fb:d7:ec:a3:f1:1f:31:dc:
         21:ed:22:95:41:45:54:f8:e9:a8:68:17:44:80:1b:f4:f6:73:
         ff:3a:08:e1:22:f5:b6:54:b1:79:5e:0c:b7:69:79:a0:1a:2d:
         fc:d1:64:4e:12:90:e8:99:40:8c:9c:f7:73:5b:9c:2d:b4:ac:
         83:bf:ac:ab:36:3a:06:5b:80:82:3b:f5:84:9c:3c:f9:95:c6:
         89:dd:0e:a5:6d:ac:58:0b:a3:9d:fa:a8:35:f2:ce:fc:42:86:
         af:e2:70:f1
-----BEGIN CERTIFICATE-----
MIIDrzCCApegAwIBAgIJAPoKI2DMpRP5MA0GCSqGSIb3DQEBCwUAMG4xCzAJBgNV
BAYTAkNaMRcwFQYDVQQIDA5DemVjaCBSZXB1YmxpYzENMAsGA1UEBwwEQnJubzEc
MBoGA1UECgwTRGVmYXVsdCBDb21wYW55IEx0ZDEZMBcGA1UEAwwQTWFydGluIFN0
cmhhcnNreTAeFw0xNjAyMTAxNDE4MzJaFw0xNjAzMTExNDE4MzJaMG4xCzAJBgNV
BAYTAkNaMRcwFQYDVQQIDA5DemVjaCBSZXB1YmxpYzENMAsGA1UEBwwEQnJubzEc
MBoGA1UECgwTRGVmYXVsdCBDb21wYW55IEx0ZDEZMBcGA1UEAwwQTWFydGluIFN0
cmhhcnNreTCCASIwDQYJKoZIhvcNAQEBBQADggEPADCCAQoCggEBANQwvkOaWowQ
XUjnOi2Y9TlyLU/aZnNREpMwlQO52H6WDXnLmSNNl0/aLSq0CI0DQGcLab/z4VvE
zMyHZWUbU1dKDGuCU7rIROi9hHxUTDcKhtMOMJVGYgLtfu8xLyLJW+l2ZpPVoRsT
pn6nUv49rOtrAXoX2eTJx/4DApSQ2/YEFyRV9nWTntZbn/mR4HfLowMj9U3TaRLC
zaKlzEjslUjrKIEgTFLJl5FR0E7r83vTm5CWqBdGTRr4WmsPTxtWjPkVG5p2HY1c
w3LCxtaKs4BORp76HRnLZPRtKv6GGWrRxDG5aNAmDKvIrUo4Q59/fAL603Lm4zoq
yxqLcO68necCAwEAAaNQME4wHQYDVR0OBBYEFNSS0x9g3n+eryAEt4MTD3iofisa
MB8GA1UdIwQYMBaAFNSS0x9g3n+eryAEt4MTD3iofisaMAwGA1UdEwQFMAMBAf8w
DQYJKoZIhvcNAQELBQADggEBAKoaecCkdctBvXlWJaoM3AlS6FTNzPhm78RqEf03
ufe/TNWn4l9hq7PqE8AolSBxv1X7w1ybV3lDbzJOPiZ3ovwVwtBrvC7G/6oywUMY
CYMVzHMAVLkCxYxU8sPxgxSyxSAZi3efDJtSIvxPoiMOwLszE4Cpf0SOYCyo09XV
U+Gq8v4hK5G9/uhB0tbnmA3slgCdAX4jhg+JoKL71+yj8R8x3CHtIpVBRVT46aho
F0SAG/T2c/86COEi9bZUsXleDLdpeaAaLfzRZE4SkOiZQIyc93NbnC20rIO/rKs2
OgZbgII79YScPPmVxondDqVtrFgLo536qDXyzvxChq/icPE=
-----END CERTIFICATE-----
